(dp0
S'76561197972322556'
p1
(dp2
Vsteamid
p3
V76561197972322556
p4
sVprimaryclanid
p5
V103582791432073781
p6
sVrealname
p7
VRobby
p8
sVpersonaname
p9
V[The] Scientist
p10
sVpersonastate
p11
I1
sVpersonastateflags
p12
I0
sVcommunityvisibilitystate
p13
I3
sVloccountrycode
p14
VUS
p15
sVprofilestate
p16
I1
sVprofileurl
p17
Vhttp://steamcommunity.com/id/RobbyS/
p18
sS'total_playtime'
p19
F13.626851255634257
sVtimecreated
p20
I1103995351
sVavatar
p21
Vhttps://steamcdn-a.akamaihd.net/steamcommunity/public/images/avatars/39/393f2fa132291102d2180ff1f5163c7998124816.jpg
p22
sVlocstatecode
p23
VNY
p24
sVavatarfull
p25
Vhttps://steamcdn-a.akamaihd.net/steamcommunity/public/images/avatars/39/393f2fa132291102d2180ff1f5163c7998124816_full.jpg
p26
sS'friend_cnt'
p27
I43
sVavatarmedium
p28
Vhttps://steamcdn-a.akamaihd.net/steamcommunity/public/images/avatars/39/393f2fa132291102d2180ff1f5163c7998124816_medium.jpg
p29
sVlastlogoff
p30
I1432541834
ssS'76561197960360379'
p31
(dp32
Vsteamid
p33
V76561197960360379
p34
sVpersonaname
p35
VRob DiGiorno
p36
sVpersonastate
p37
I0
sVcommunityvisibilitystate
p38
I1
sVprofilestate
p39
I1
sVprofileurl
p40
Vhttp://steamcommunity.com/profiles/76561197960360379/
p41
sg19
F9.973086297113419
sVavatar
p42
Vhttps://steamcdn-a.akamaihd.net/steamcommunity/public/images/avatars/39/3954395a2d2ba63ae7886c3dc9ffd04c9eac089d.jpg
p43
sVavatarfull
p44
Vhttps://steamcdn-a.akamaihd.net/steamcommunity/public/images/avatars/39/3954395a2d2ba63ae7886c3dc9ffd04c9eac089d_full.jpg
p45
sg27
I0
sVavatarmedium
p46
Vhttps://steamcdn-a.akamaihd.net/steamcommunity/public/images/avatars/39/3954395a2d2ba63ae7886c3dc9ffd04c9eac089d_medium.jpg
p47
sVlastlogoff
p48
I1432575839
ss.